target datalayout = "e-m:e-p270:32:32-p271:32:32-p272:64:64-i64:64-i128:128-f80:128-n8:16:32:64-S128"
target triple = "x86_64-pc-linux-gnu"

@.str.1 = private unnamed_addr constant [8 x i8] c"proto.c\00", align 1
@.str.16 = private unnamed_addr constant [35 x i8] c"expected action 'O' or 'K', got %c\00", align 1
@__func__.logicalrep_read_delete = private unnamed_addr constant [23 x i8] c"logicalrep_read_delete\00", align 1

; Function Attrs: nounwind uwtable
define dso_local i32 @logicalrep_read_delete(ptr noundef %0, ptr noundef %1) #0 {
  %3 = alloca ptr, align 8
  %4 = alloca ptr, align 8
  %5 = alloca i8, align 1
  %6 = alloca i32, align 4
  store ptr %0, ptr %3, align 8
  store ptr %1, ptr %4, align 8
  call void @llvm.lifetime.start.p0(i64 1, ptr %5) #9
  call void @llvm.lifetime.start.p0(i64 4, ptr %6) #9
  %7 = load ptr, ptr %3, align 8
  %8 = call i32 @pq_getmsgint(ptr noundef %7, i32 noundef 4)
  store i32 %8, ptr %6, align 4
  %9 = load ptr, ptr %3, align 8
  %10 = call i32 @pq_getmsgbyte(ptr noundef %9)
  %11 = trunc i32 %10 to i8
  store i8 %11, ptr %5, align 1
  %12 = load i8, ptr %5, align 1
  %13 = sext i8 %12 to i32
  %14 = icmp ne i32 %13, 75
  br i1 %14, label %15, label %32

15:                                               ; preds = %2
  %16 = load i8, ptr %5, align 1
  %17 = sext i8 %16 to i32
  %18 = icmp ne i32 %17, 79
  br i1 %18, label %19, label %32

19:                                               ; preds = %15
  br label %20

20:                                               ; preds = %19
  br i1 true, label %21, label %23

21:                                               ; preds = %20
  %22 = call zeroext i1 @errstart_cold(i32 noundef 21, ptr noundef null) #8
  br i1 %22, label %25, label %29

23:                                               ; preds = %20
  %24 = call zeroext i1 @errstart(i32 noundef 21, ptr noundef null)
  br i1 %24, label %25, label %29

25:                                               ; preds = %23, %21
  %26 = load i8, ptr %5, align 1
  %27 = sext i8 %26 to i32
  %28 = call i32 (ptr, ...) @errmsg_internal(ptr noundef @.str.16, i32 noundef %27)
  call void @errfinish(ptr noundef @.str.1, i32 noundef 572, ptr noundef @__func__.logicalrep_read_delete)
  br label %29

29:                                               ; preds = %25, %23, %21
  unreachable

30:                                               ; No predecessors!
  br label %31

31:                                               ; preds = %30
  br label %32

32:                                               ; preds = %31, %15, %2
  %33 = load ptr, ptr %3, align 8
  %34 = load ptr, ptr %4, align 8
  call void @logicalrep_read_tuple(ptr noundef %33, ptr noundef %34)
  %35 = load i32, ptr %6, align 4
  call void @llvm.lifetime.end.p0(i64 4, ptr %6) #9
  call void @llvm.lifetime.end.p0(i64 1, ptr %5) #9
  ret i32 %35
}