; Function Attrs: nounwind uwtable
define dso_local i32 @logicalrep_read_delete(ptr noundef %0, ptr noundef captures(none) %1) local_unnamed_addr #0 {
  %3 = tail call i32 @pq_getmsgint(ptr noundef %0, i32 noundef 4) #8
  %4 = tail call i32 @pq_getmsgbyte(ptr noundef %0) #8
  %5 = and i32 %4, 251
  %or.cond.not = icmp eq i32 %5, 75
  br i1 %or.cond.not, label %10, label %6

6:                                                ; preds = %2
  %sext = shl i32 %4, 24
  %7 = ashr exact i32 %sext, 24
  %8 = tail call zeroext i1 @errstart_cold(i32 noundef 21, ptr noundef null) #9
  tail call void @llvm.assume(i1 %8)
  %9 = tail call i32 (ptr, ...) @errmsg_internal(ptr noundef nonnull @.str.16, i32 noundef %7) #8
  tail call void @errfinish(ptr noundef nonnull @.str.1, i32 noundef 572, ptr noundef nonnull @__func__.logicalrep_read_delete) #8
  unreachable

10:                                               ; preds = %2
  tail call fastcc void @logicalrep_read_tuple(ptr noundef %0, ptr noundef %1)
  ret i32 %3
}